
/mnt/e/WSL/git_clones/Programs/bare_bones_v3.elf:     file format elf32-littleriscv


Disassembly of section .text:

00000000 <_start>:
   0:	fe010113          	addi	sp,sp,-32
   4:	00112e23          	sw	ra,28(sp)
   8:	00812c23          	sw	s0,24(sp)
   c:	02010413          	addi	s0,sp,32
  10:	058000ef          	jal	ra,68 <main>
  14:	fea42623          	sw	a0,-20(s0)
  18:	ffff                	0xffff
  1a:	ffff                	0xffff
  1c:	00000013          	nop
  20:	01c12083          	lw	ra,28(sp)
  24:	01812403          	lw	s0,24(sp)
  28:	02010113          	addi	sp,sp,32
  2c:	00008067          	ret

00000030 <_Z3addii>:
  30:	fd010113          	addi	sp,sp,-48
  34:	02812623          	sw	s0,44(sp)
  38:	03010413          	addi	s0,sp,48
  3c:	fca42e23          	sw	a0,-36(s0)
  40:	fcb42c23          	sw	a1,-40(s0)
  44:	fdc42703          	lw	a4,-36(s0)
  48:	fd842783          	lw	a5,-40(s0)
  4c:	00f707b3          	add	a5,a4,a5
  50:	fef42623          	sw	a5,-20(s0)
  54:	fec42783          	lw	a5,-20(s0)
  58:	00078513          	mv	a0,a5
  5c:	02c12403          	lw	s0,44(sp)
  60:	03010113          	addi	sp,sp,48
  64:	00008067          	ret

00000068 <main>:
  68:	fe010113          	addi	sp,sp,-32
  6c:	00112e23          	sw	ra,28(sp)
  70:	00812c23          	sw	s0,24(sp)
  74:	02010413          	addi	s0,sp,32
  78:	00f00593          	li	a1,15
  7c:	00c00513          	li	a0,12
  80:	fb1ff0ef          	jal	ra,30 <_Z3addii>
  84:	fea42623          	sw	a0,-20(s0)
  88:	fec42783          	lw	a5,-20(s0)
  8c:	00078513          	mv	a0,a5
  90:	01c12083          	lw	ra,28(sp)
  94:	01812403          	lw	s0,24(sp)
  98:	02010113          	addi	sp,sp,32
  9c:	00008067          	ret
