
/mnt/e/WSL/git_clones/Programs/state_dump.elf:     file format elf32-littleriscv


Disassembly of section .text:

00000000 <_start>:
   0:	002007b7          	lui	a5,0x200
   4:	41078793          	addi	a5,a5,1040 # 200410 <SET_DIS_I_CACHE>
   8:	0007a023          	sw	zero,0(a5)
   c:	00000013          	nop
  10:	00180117          	auipc	sp,0x180
  14:	ff010113          	addi	sp,sp,-16 # 180000 <_end>
  18:	0017e197          	auipc	gp,0x17e
  1c:	fe818193          	addi	gp,gp,-24 # 17e000 <_global_pointer>
  20:	00c000ef          	jal	ra,2c <main>
  24:	ffff                	0xffff
  26:	ffff                	0xffff
  28:	00000013          	nop

0000002c <main>:
  2c:	ff010113          	addi	sp,sp,-16
  30:	00112623          	sw	ra,12(sp)
  34:	00812423          	sw	s0,8(sp)
  38:	01010413          	addi	s0,sp,16
  3c:	3e800513          	li	a0,1000
  40:	038000ef          	jal	ra,78 <_Z9uart_initi>
  44:	03e00513          	li	a0,62
  48:	0c8000ef          	jal	ra,110 <_Z9uart_putcc>
  4c:	00a00513          	li	a0,10
  50:	0c0000ef          	jal	ra,110 <_Z9uart_putcc>
  54:	00000013          	nop
  58:	2ec000ef          	jal	ra,344 <_Z18uart_poll_watchdogv>
  5c:	00000013          	nop
  60:	00000793          	li	a5,0
  64:	00078513          	mv	a0,a5
  68:	00c12083          	lw	ra,12(sp)
  6c:	00812403          	lw	s0,8(sp)
  70:	01010113          	addi	sp,sp,16
  74:	00008067          	ret

00000078 <_Z9uart_initi>:
  78:	fe010113          	addi	sp,sp,-32
  7c:	00812e23          	sw	s0,28(sp)
  80:	02010413          	addi	s0,sp,32
  84:	fea42623          	sw	a0,-20(s0)
  88:	002017b7          	lui	a5,0x201
  8c:	80078793          	addi	a5,a5,-2048 # 200800 <UART_BAUD>
  90:	fec42703          	lw	a4,-20(s0)
  94:	00e7a023          	sw	a4,0(a5)
  98:	00000013          	nop
  9c:	01c12403          	lw	s0,28(sp)
  a0:	02010113          	addi	sp,sp,32
  a4:	00008067          	ret

000000a8 <_Z9uart_getcv>:
  a8:	fe010113          	addi	sp,sp,-32
  ac:	00812e23          	sw	s0,28(sp)
  b0:	02010413          	addi	s0,sp,32
  b4:	00000013          	nop
  b8:	002017b7          	lui	a5,0x201
  bc:	80478793          	addi	a5,a5,-2044 # 200804 <UART_RECV>
  c0:	0007c783          	lbu	a5,0(a5)
  c4:	fef407a3          	sb	a5,-17(s0)
  c8:	fef44783          	lbu	a5,-17(s0)
  cc:	00078513          	mv	a0,a5
  d0:	01c12403          	lw	s0,28(sp)
  d4:	02010113          	addi	sp,sp,32
  d8:	00008067          	ret

000000dc <_Z11uart_statusv>:
  dc:	fe010113          	addi	sp,sp,-32
  e0:	00812e23          	sw	s0,28(sp)
  e4:	02010413          	addi	s0,sp,32
  e8:	00000013          	nop
  ec:	002017b7          	lui	a5,0x201
  f0:	80c78793          	addi	a5,a5,-2036 # 20080c <UART_STAT>
  f4:	0007c783          	lbu	a5,0(a5)
  f8:	fef407a3          	sb	a5,-17(s0)
  fc:	fef44783          	lbu	a5,-17(s0)
 100:	00078513          	mv	a0,a5
 104:	01c12403          	lw	s0,28(sp)
 108:	02010113          	addi	sp,sp,32
 10c:	00008067          	ret

00000110 <_Z9uart_putcc>:
 110:	fd010113          	addi	sp,sp,-48
 114:	02812623          	sw	s0,44(sp)
 118:	03010413          	addi	s0,sp,48
 11c:	00050793          	mv	a5,a0
 120:	fcf40fa3          	sb	a5,-33(s0)
 124:	002017b7          	lui	a5,0x201
 128:	80078793          	addi	a5,a5,-2048 # 200800 <UART_BAUD>
 12c:	0007a783          	lw	a5,0(a5)
 130:	fef42223          	sw	a5,-28(s0)
 134:	002017b7          	lui	a5,0x201
 138:	80878793          	addi	a5,a5,-2040 # 200808 <UART_SEND>
 13c:	fdf44703          	lbu	a4,-33(s0)
 140:	00e78023          	sb	a4,0(a5)
 144:	fe042623          	sw	zero,-20(s0)
 148:	fec42783          	lw	a5,-20(s0)
 14c:	02f04a63          	bgtz	a5,180 <_Z9uart_putcc+0x70>
 150:	fe042423          	sw	zero,-24(s0)
 154:	fe842703          	lw	a4,-24(s0)
 158:	fe442783          	lw	a5,-28(s0)
 15c:	00f75a63          	bge	a4,a5,170 <_Z9uart_putcc+0x60>
 160:	fe842783          	lw	a5,-24(s0)
 164:	00178793          	addi	a5,a5,1
 168:	fef42423          	sw	a5,-24(s0)
 16c:	fe9ff06f          	j	154 <_Z9uart_putcc+0x44>
 170:	fec42783          	lw	a5,-20(s0)
 174:	00178793          	addi	a5,a5,1
 178:	fef42623          	sw	a5,-20(s0)
 17c:	fcdff06f          	j	148 <_Z9uart_putcc+0x38>
 180:	00000013          	nop
 184:	02c12403          	lw	s0,44(sp)
 188:	03010113          	addi	sp,sp,48
 18c:	00008067          	ret

00000190 <_Z8fib_iteri>:
 190:	fc010113          	addi	sp,sp,-64
 194:	02812e23          	sw	s0,60(sp)
 198:	04010413          	addi	s0,sp,64
 19c:	fca42623          	sw	a0,-52(s0)
 1a0:	00100793          	li	a5,1
 1a4:	fef42623          	sw	a5,-20(s0)
 1a8:	fe042423          	sw	zero,-24(s0)
 1ac:	fe042223          	sw	zero,-28(s0)
 1b0:	fe042023          	sw	zero,-32(s0)
 1b4:	fcc42703          	lw	a4,-52(s0)
 1b8:	02f00793          	li	a5,47
 1bc:	00e7d863          	bge	a5,a4,1cc <_Z8fib_iteri+0x3c>
 1c0:	02f00793          	li	a5,47
 1c4:	fef42023          	sw	a5,-32(s0)
 1c8:	00c0006f          	j	1d4 <_Z8fib_iteri+0x44>
 1cc:	fcc42783          	lw	a5,-52(s0)
 1d0:	fef42023          	sw	a5,-32(s0)
 1d4:	00100793          	li	a5,1
 1d8:	fcf42e23          	sw	a5,-36(s0)
 1dc:	fdc42703          	lw	a4,-36(s0)
 1e0:	fe042783          	lw	a5,-32(s0)
 1e4:	02f75a63          	bge	a4,a5,218 <_Z8fib_iteri+0x88>
 1e8:	fec42703          	lw	a4,-20(s0)
 1ec:	fe842783          	lw	a5,-24(s0)
 1f0:	00f707b3          	add	a5,a4,a5
 1f4:	fef42223          	sw	a5,-28(s0)
 1f8:	fec42783          	lw	a5,-20(s0)
 1fc:	fef42423          	sw	a5,-24(s0)
 200:	fe442783          	lw	a5,-28(s0)
 204:	fef42623          	sw	a5,-20(s0)
 208:	fdc42783          	lw	a5,-36(s0)
 20c:	00178793          	addi	a5,a5,1
 210:	fcf42e23          	sw	a5,-36(s0)
 214:	fc9ff06f          	j	1dc <_Z8fib_iteri+0x4c>
 218:	fe442783          	lw	a5,-28(s0)
 21c:	00078513          	mv	a0,a5
 220:	03c12403          	lw	s0,60(sp)
 224:	04010113          	addi	sp,sp,64
 228:	00008067          	ret

0000022c <_Z13fib_recursivei>:
 22c:	fe010113          	addi	sp,sp,-32
 230:	00112e23          	sw	ra,28(sp)
 234:	00812c23          	sw	s0,24(sp)
 238:	00912a23          	sw	s1,20(sp)
 23c:	02010413          	addi	s0,sp,32
 240:	fea42623          	sw	a0,-20(s0)
 244:	fec42703          	lw	a4,-20(s0)
 248:	00100793          	li	a5,1
 24c:	00e7c663          	blt	a5,a4,258 <_Z13fib_recursivei+0x2c>
 250:	fec42783          	lw	a5,-20(s0)
 254:	0300006f          	j	284 <_Z13fib_recursivei+0x58>
 258:	fec42783          	lw	a5,-20(s0)
 25c:	fff78793          	addi	a5,a5,-1
 260:	00078513          	mv	a0,a5
 264:	fc9ff0ef          	jal	ra,22c <_Z13fib_recursivei>
 268:	00050493          	mv	s1,a0
 26c:	fec42783          	lw	a5,-20(s0)
 270:	ffe78793          	addi	a5,a5,-2
 274:	00078513          	mv	a0,a5
 278:	fb5ff0ef          	jal	ra,22c <_Z13fib_recursivei>
 27c:	00050793          	mv	a5,a0
 280:	00f487b3          	add	a5,s1,a5
 284:	00078513          	mv	a0,a5
 288:	01c12083          	lw	ra,28(sp)
 28c:	01812403          	lw	s0,24(sp)
 290:	01412483          	lw	s1,20(sp)
 294:	02010113          	addi	sp,sp,32
 298:	00008067          	ret

0000029c <_Z11dump_resulti>:
 29c:	fe010113          	addi	sp,sp,-32
 2a0:	00112e23          	sw	ra,28(sp)
 2a4:	00812c23          	sw	s0,24(sp)
 2a8:	02010413          	addi	s0,sp,32
 2ac:	fea42623          	sw	a0,-20(s0)
 2b0:	04400513          	li	a0,68
 2b4:	e5dff0ef          	jal	ra,110 <_Z9uart_putcc>
 2b8:	fec42783          	lw	a5,-20(s0)
 2bc:	0ff7f793          	andi	a5,a5,255
 2c0:	00078513          	mv	a0,a5
 2c4:	e4dff0ef          	jal	ra,110 <_Z9uart_putcc>
 2c8:	fec42703          	lw	a4,-20(s0)
 2cc:	0ff00793          	li	a5,255
 2d0:	00e7dc63          	bge	a5,a4,2e8 <_Z11dump_resulti+0x4c>
 2d4:	fec42783          	lw	a5,-20(s0)
 2d8:	4087d793          	srai	a5,a5,0x8
 2dc:	0ff7f793          	andi	a5,a5,255
 2e0:	00078513          	mv	a0,a5
 2e4:	e2dff0ef          	jal	ra,110 <_Z9uart_putcc>
 2e8:	fec42703          	lw	a4,-20(s0)
 2ec:	000107b7          	lui	a5,0x10
 2f0:	00f74c63          	blt	a4,a5,308 <_Z11dump_resulti+0x6c>
 2f4:	fec42783          	lw	a5,-20(s0)
 2f8:	4107d793          	srai	a5,a5,0x10
 2fc:	0ff7f793          	andi	a5,a5,255
 300:	00078513          	mv	a0,a5
 304:	e0dff0ef          	jal	ra,110 <_Z9uart_putcc>
 308:	fec42703          	lw	a4,-20(s0)
 30c:	010007b7          	lui	a5,0x1000
 310:	00f74c63          	blt	a4,a5,328 <_Z11dump_resulti+0x8c>
 314:	fec42783          	lw	a5,-20(s0)
 318:	0187d793          	srli	a5,a5,0x18
 31c:	0ff7f793          	andi	a5,a5,255
 320:	00078513          	mv	a0,a5
 324:	dedff0ef          	jal	ra,110 <_Z9uart_putcc>
 328:	04400513          	li	a0,68
 32c:	de5ff0ef          	jal	ra,110 <_Z9uart_putcc>
 330:	00000013          	nop
 334:	01c12083          	lw	ra,28(sp)
 338:	01812403          	lw	s0,24(sp)
 33c:	02010113          	addi	sp,sp,32
 340:	00008067          	ret

00000344 <_Z18uart_poll_watchdogv>:
 344:	fe010113          	addi	sp,sp,-32
 348:	00112e23          	sw	ra,28(sp)
 34c:	00812c23          	sw	s0,24(sp)
 350:	02010413          	addi	s0,sp,32
 354:	fe042623          	sw	zero,-20(s0)
 358:	fec42703          	lw	a4,-20(s0)
 35c:	3e700793          	li	a5,999
 360:	06e7c463          	blt	a5,a4,3c8 <_Z18uart_poll_watchdogv+0x84>
 364:	00000013          	nop
 368:	d75ff0ef          	jal	ra,dc <_Z11uart_statusv>
 36c:	00050793          	mv	a5,a0
 370:	fef405a3          	sb	a5,-21(s0)
 374:	00000013          	nop
 378:	feb44783          	lbu	a5,-21(s0)
 37c:	0047f793          	andi	a5,a5,4
 380:	02078c63          	beqz	a5,3b8 <_Z18uart_poll_watchdogv+0x74>
 384:	00000013          	nop
 388:	d21ff0ef          	jal	ra,a8 <_Z9uart_getcv>
 38c:	00050793          	mv	a5,a0
 390:	fef40523          	sb	a5,-22(s0)
 394:	00000013          	nop
 398:	fea44703          	lbu	a4,-22(s0)
 39c:	04100793          	li	a5,65
 3a0:	00f71c63          	bne	a4,a5,3b8 <_Z18uart_poll_watchdogv+0x74>
 3a4:	044000ef          	jal	ra,3e8 <_Z7computev>
 3a8:	00050793          	mv	a5,a0
 3ac:	fef404a3          	sb	a5,-23(s0)
 3b0:	00000013          	nop
 3b4:	0240006f          	j	3d8 <_Z18uart_poll_watchdogv+0x94>
 3b8:	fec42783          	lw	a5,-20(s0)
 3bc:	00178793          	addi	a5,a5,1 # 1000001 <__stack_end+0xd01801>
 3c0:	fef42623          	sw	a5,-20(s0)
 3c4:	f95ff06f          	j	358 <_Z18uart_poll_watchdogv+0x14>
 3c8:	05400513          	li	a0,84
 3cc:	d45ff0ef          	jal	ra,110 <_Z9uart_putcc>
 3d0:	00000013          	nop
 3d4:	00000013          	nop
 3d8:	01c12083          	lw	ra,28(sp)
 3dc:	01812403          	lw	s0,24(sp)
 3e0:	02010113          	addi	sp,sp,32
 3e4:	00008067          	ret

000003e8 <_Z7computev>:
 3e8:	fe010113          	addi	sp,sp,-32
 3ec:	00112e23          	sw	ra,28(sp)
 3f0:	00812c23          	sw	s0,24(sp)
 3f4:	02010413          	addi	s0,sp,32
 3f8:	fe042423          	sw	zero,-24(s0)
 3fc:	fe042223          	sw	zero,-28(s0)
 400:	00a00793          	li	a5,10
 404:	fef42023          	sw	a5,-32(s0)
 408:	fff00793          	li	a5,-1
 40c:	fef407a3          	sb	a5,-17(s0)
 410:	fe042503          	lw	a0,-32(s0)
 414:	d7dff0ef          	jal	ra,190 <_Z8fib_iteri>
 418:	fea42423          	sw	a0,-24(s0)
 41c:	00000013          	nop
 420:	fe042503          	lw	a0,-32(s0)
 424:	e09ff0ef          	jal	ra,22c <_Z13fib_recursivei>
 428:	00050793          	mv	a5,a0
 42c:	fef42223          	sw	a5,-28(s0)
 430:	00000013          	nop
 434:	fe842703          	lw	a4,-24(s0)
 438:	fe442783          	lw	a5,-28(s0)
 43c:	00f71863          	bne	a4,a5,44c <_Z7computev+0x64>
 440:	00100793          	li	a5,1
 444:	fef407a3          	sb	a5,-17(s0)
 448:	0080006f          	j	450 <_Z7computev+0x68>
 44c:	fe0407a3          	sb	zero,-17(s0)
 450:	00000013          	nop
 454:	04300513          	li	a0,67
 458:	cb9ff0ef          	jal	ra,110 <_Z9uart_putcc>
 45c:	00000013          	nop
 460:	fe842503          	lw	a0,-24(s0)
 464:	e39ff0ef          	jal	ra,29c <_Z11dump_resulti>
 468:	00000013          	nop
 46c:	fef44783          	lbu	a5,-17(s0)
 470:	00078513          	mv	a0,a5
 474:	01c12083          	lw	ra,28(sp)
 478:	01812403          	lw	s0,24(sp)
 47c:	02010113          	addi	sp,sp,32
 480:	00008067          	ret

Disassembly of section .spi_compute:

00000c00 <.spi_compute>:
	...

Disassembly of section .spi_uart:

00001000 <.spi_uart>:
	...
